target datalayout = "e-m:e-p270:32:32-p271:32:32-p272:64:64-i64:64-i128:128-f80:128-n8:16:32:64-S128"
target triple = "x86_64-pc-linux-gnu"

@.str = private unnamed_addr constant [10 x i8] c"siphash24\00", align 1

; Function Attrs: nounwind ssp uwtable
define dso_local i64 @crypto_shorthash_bytes() #0 {
  ret i64 8
}

; Function Attrs: nounwind ssp uwtable
define dso_local i64 @crypto_shorthash_keybytes() #0 {
  ret i64 16
}

; Function Attrs: nounwind ssp uwtable
define dso_local ptr @crypto_shorthash_primitive() #0 {
  ret ptr @.str
}

; Function Attrs: nounwind ssp uwtable
define dso_local i32 @crypto_shorthash(ptr noundef nonnull %0, ptr noundef %1, i64 noundef %2, ptr noundef nonnull %3) #0 {
  %5 = alloca ptr, align 8
  %6 = alloca ptr, align 8
  %7 = alloca i64, align 8
  %8 = alloca ptr, align 8
  store ptr %0, ptr %5, align 8
  store ptr %1, ptr %6, align 8
  store i64 %2, ptr %7, align 8
  store ptr %3, ptr %8, align 8
  %9 = load ptr, ptr %5, align 8
  %10 = load ptr, ptr %6, align 8
  %11 = load i64, ptr %7, align 8
  %12 = load ptr, ptr %8, align 8
  %13 = call i32 @crypto_shorthash_siphash24(ptr noundef %9, ptr noundef %10, i64 noundef %11, ptr noundef %12)
  ret i32 %13
}

declare i32 @crypto_shorthash_siphash24(ptr noundef, ptr noundef, i64 noundef, ptr noundef) #1

; Function Attrs: nounwind ssp uwtable
define dso_local void @crypto_shorthash_keygen(ptr noundef nonnull %0) #0 {
  %2 = alloca ptr, align 8
  store ptr %0, ptr %2, align 8
  %3 = load ptr, ptr %2, align 8
  call void @randombytes_buf(ptr noundef %3, i64 noundef 16)
  ret void
}

declare void @randombytes_buf(ptr noundef, i64 noundef) #1


!llvm.module.flags = !{!0, !1, !2, !3}

!0 = !{i32 1, !"wchar_size", i32 4}
!1 = !{i32 8, !"PIC Level", i32 2}
!2 = !{i32 7, !"PIE Level", i32 2}
!3 = !{i32 7, !"uwtable", i32 2}
